target datalayout = "e-m:e-p270:32:32-p271:32:32-p272:64:64-i64:64-i128:128-f80:128-n8:16:32:64-S128"
target triple = "x86_64-pc-linux-gnu"

%struct.rb_global_entry = type { ptr, i64, i8 }
%struct.rb_global_variable = type { i32, i32, ptr, ptr, ptr, ptr, ptr, ptr }
%struct.trace_var = type { i32, ptr, i64, ptr }

; Function Attrs: nounwind sspstrong uwtable
define internal void @free_global_variable(ptr noundef %0) #0 {
  %2 = alloca ptr, align 8
  %3 = alloca ptr, align 8
  %4 = alloca ptr, align 8
  store ptr %0, ptr %2, align 8, !tbaa !62
  call void @llvm.lifetime.start.p0(i64 8, ptr %3) #30
  %5 = load ptr, ptr %2, align 8, !tbaa !62
  %6 = getelementptr inbounds nuw %struct.rb_global_variable, ptr %5, i32 0, i32 7
  %7 = load ptr, ptr %6, align 8, !tbaa !70
  store ptr %7, ptr %3, align 8, !tbaa !71
  br label %8

8:                                                ; preds = %11, %1
  %9 = load ptr, ptr %3, align 8, !tbaa !71
  %10 = icmp ne ptr %9, null
  br i1 %10, label %11, label %17

11:                                               ; preds = %8
  call void @llvm.lifetime.start.p0(i64 8, ptr %4) #30
  %12 = load ptr, ptr %3, align 8, !tbaa !71
  %13 = getelementptr inbounds nuw %struct.trace_var, ptr %12, i32 0, i32 3
  %14 = load ptr, ptr %13, align 8, !tbaa !74
  store ptr %14, ptr %4, align 8, !tbaa !71
  %15 = load ptr, ptr %3, align 8, !tbaa !71
  call void @ruby_xfree(ptr noundef %15)
  %16 = load ptr, ptr %4, align 8, !tbaa !71
  store ptr %16, ptr %3, align 8, !tbaa !71
  call void @llvm.lifetime.end.p0(i64 8, ptr %4) #30
  br label %8, !llvm.loop !93

17:                                               ; preds = %8
  %18 = load ptr, ptr %2, align 8, !tbaa !62
  call void @ruby_xfree(ptr noundef %18)
  call void @llvm.lifetime.end.p0(i64 8, ptr %3) #30
  ret void
}

; Function Attrs: nounwind sspstrong uwtable
define internal i32 @free_global_entry_i(i64 noundef %0, ptr noundef %1) #0 {
  %3 = alloca i64, align 8
  %4 = alloca ptr, align 8
  %5 = alloca ptr, align 8
  store i64 %0, ptr %3, align 8, !tbaa !14
  store ptr %1, ptr %4, align 8, !tbaa !40
  call void @llvm.lifetime.start.p0(i64 8, ptr %5) #30
  %6 = load i64, ptr %3, align 8, !tbaa !14
  %7 = inttoptr i64 %6 to ptr
  store ptr %7, ptr %5, align 8, !tbaa !52
  %8 = load ptr, ptr %5, align 8, !tbaa !52
  %9 = getelementptr inbounds nuw %struct.rb_global_entry, ptr %8, i32 0, i32 0
  %10 = load ptr, ptr %9, align 8, !tbaa !54
  %11 = getelementptr inbounds nuw %struct.rb_global_variable, ptr %10, i32 0, i32 0
  %12 = load i32, ptr %11, align 8, !tbaa !57
  %13 = add i32 %12, -1
  store i32 %13, ptr %11, align 8, !tbaa !57
  %14 = load ptr, ptr %5, align 8, !tbaa !52
  %15 = getelementptr inbounds nuw %struct.rb_global_entry, ptr %14, i32 0, i32 0
  %16 = load ptr, ptr %15, align 8, !tbaa !54
  %17 = getelementptr inbounds nuw %struct.rb_global_variable, ptr %16, i32 0, i32 0
  %18 = load i32, ptr %17, align 8, !tbaa !57
  %19 = icmp eq i32 %18, 0
  br i1 %19, label %20, label %24

20:                                               ; preds = %2
  %21 = load ptr, ptr %5, align 8, !tbaa !52
  %22 = getelementptr inbounds nuw %struct.rb_global_entry, ptr %21, i32 0, i32 0
  %23 = load ptr, ptr %22, align 8, !tbaa !54
  call void @free_global_variable(ptr noundef %23)
  br label %24

24:                                               ; preds = %20, %2
  %25 = load ptr, ptr %5, align 8, !tbaa !52
  call void @ruby_xfree(ptr noundef %25)
  call void @llvm.lifetime.end.p0(i64 8, ptr %5) #30
  ret i32 2
}