; Function Attrs: nounwind sspstrong uwtable
define internal noundef i32 @free_global_entry_i(i64 noundef %0, ptr readnone captures(none) %1) #0 {
  %3 = inttoptr i64 %0 to ptr
  %4 = load ptr, ptr %3, align 8, !tbaa !58
  %5 = load i32, ptr %4, align 8, !tbaa !61
  %6 = add i32 %5, -1
  store i32 %6, ptr %4, align 8, !tbaa !61
  %7 = icmp eq i32 %6, 0
  br i1 %7, label %8, label %13

8:                                                ; preds = %2
  %9 = getelementptr inbounds nuw i8, ptr %4, i64 48
  %10 = load ptr, ptr %9, align 8, !tbaa !64
  %.not6.i = icmp eq ptr %10, null
  br i1 %.not6.i, label %free_global_variable.exit, label %.lr.ph.i

.lr.ph.i:                                         ; preds = %8, %.lr.ph.i
  %.07.i = phi ptr [ %12, %.lr.ph.i ], [ %10, %8 ]
  %11 = getelementptr inbounds nuw i8, ptr %.07.i, i64 24
  %12 = load ptr, ptr %11, align 8, !tbaa !65
  tail call void @ruby_xfree(ptr noundef nonnull %.07.i) #27
  %.not.i = icmp eq ptr %12, null
  br i1 %.not.i, label %free_global_variable.exit, label %.lr.ph.i, !llvm.loop !67

free_global_variable.exit:                        ; preds = %.lr.ph.i, %8
  tail call void @ruby_xfree(ptr noundef nonnull %4) #27
  br label %13

13:                                               ; preds = %free_global_variable.exit, %2
  tail call void @ruby_xfree(ptr noundef nonnull %3) #27
  ret i32 2
}